; Function Attrs: mustprogress uwtable
define i32 @proj_log_level(ptr noundef %0, i32 noundef %1) local_unnamed_addr #3 {
  %3 = icmp eq ptr %0, null
  br i1 %3, label %4, label %.thread

4:                                                ; preds = %2
  %5 = tail call noundef ptr @_Z18pj_get_default_ctxv()
  %6 = icmp eq ptr %5, null
  br i1 %6, label %12, label %.thread

.thread:                                          ; preds = %2, %4
  %.0812 = phi ptr [ %5, %4 ], [ %0, %2 ]
  %7 = getelementptr inbounds i8, ptr %.0812, i64 36
  %8 = load i32, ptr %7, align 4
  %9 = tail call i32 @llvm.abs.i32(i32 %8, i1 true)
  %10 = icmp eq i32 %1, 4
  br i1 %10, label %12, label %11

11:                                               ; preds = %.thread
  store i32 %1, ptr %7, align 4
  br label %12

12:                                               ; preds = %.thread, %4, %11
  %.0 = phi i32 [ %9, %11 ], [ 4, %4 ], [ %9, %.thread ]
  ret i32 %.0
}